; Function Attrs: mustprogress uwtable
define noundef zeroext i1 @_ZNK6icu_7717RuleBasedTimeZoneeqERKNS_8TimeZoneE(ptr noundef nonnull align 8 dereferenceable(105) %0, ptr noundef nonnull align 8 dereferenceable(72) %1) unnamed_addr #1 align 2 {
  %3 = icmp eq ptr %0, %1
  br i1 %3, label %_ZN6icu_77L12compareRulesEPNS_7UVectorES1_.exit21, label %4

4:                                                ; preds = %2
  %5 = load ptr, ptr %0, align 8, !tbaa !3
  %6 = getelementptr inbounds i8, ptr %5, i64 -8
  %7 = load ptr, ptr %6, align 8
  %8 = load ptr, ptr %1, align 8, !tbaa !3
  %9 = getelementptr inbounds i8, ptr %8, i64 -8
  %10 = load ptr, ptr %9, align 8
  %11 = getelementptr inbounds nuw i8, ptr %7, i64 8
  %12 = load ptr, ptr %11, align 8, !tbaa !44
  %13 = getelementptr inbounds nuw i8, ptr %10, i64 8
  %14 = load ptr, ptr %13, align 8, !tbaa !44
  %15 = icmp eq ptr %12, %14
  br i1 %15, label %_ZNKSt9type_infoneERKS_.exit.thread23, label %16

16:                                               ; preds = %4
  %17 = load i8, ptr %12, align 1, !tbaa !31
  %.not.i.i = icmp eq i8 %17, 42
  br i1 %.not.i.i, label %_ZN6icu_77L12compareRulesEPNS_7UVectorES1_.exit21, label %_ZNKSt9type_infoneERKS_.exit

_ZNKSt9type_infoneERKS_.exit:                     ; preds = %16
  %18 = load i8, ptr %14, align 1, !tbaa !31
  %19 = icmp eq i8 %18, 42
  %.idx.i.i.i = zext i1 %19 to i64
  %20 = getelementptr inbounds nuw i8, ptr %14, i64 %.idx.i.i.i
  %21 = tail call i32 @strcmp(ptr noundef nonnull dereferenceable(1) %12, ptr noundef nonnull dereferenceable(1) %20) #14
  %.not = icmp eq i32 %21, 0
  br i1 %.not, label %_ZNKSt9type_infoneERKS_.exit.thread23, label %_ZN6icu_77L12compareRulesEPNS_7UVectorES1_.exit21

_ZNKSt9type_infoneERKS_.exit.thread23:            ; preds = %4, %_ZNKSt9type_infoneERKS_.exit
  %22 = tail call noundef zeroext i1 @_ZNK6icu_778TimeZoneeqERKS0_(ptr noundef nonnull align 8 dereferenceable(72) %0, ptr noundef nonnull align 8 dereferenceable(72) %1)
  br i1 %22, label %23, label %_ZN6icu_77L12compareRulesEPNS_7UVectorES1_.exit21

23:                                               ; preds = %_ZNKSt9type_infoneERKS_.exit.thread23
  %24 = getelementptr inbounds nuw i8, ptr %0, i64 72
  %25 = load ptr, ptr %24, align 8, !tbaa !6
  %26 = getelementptr inbounds nuw i8, ptr %1, i64 72
  %27 = load ptr, ptr %26, align 8, !tbaa !6
  %28 = load ptr, ptr %25, align 8, !tbaa !3
  %29 = getelementptr inbounds nuw i8, ptr %28, i64 40
  %30 = load ptr, ptr %29, align 8
  %31 = tail call noundef zeroext i1 %30(ptr noundef nonnull align 8 dereferenceable(80) %25, ptr noundef nonnull align 8 dereferenceable(80) %27)
  br i1 %31, label %_ZN6icu_77L12compareRulesEPNS_7UVectorES1_.exit21, label %32

32:                                               ; preds = %23
  %33 = getelementptr inbounds nuw i8, ptr %0, i64 80
  %34 = load ptr, ptr %33, align 8, !tbaa !19
  %35 = getelementptr inbounds nuw i8, ptr %1, i64 80
  %36 = load ptr, ptr %35, align 8, !tbaa !19
  %37 = icmp eq ptr %34, null
  %38 = icmp eq ptr %36, null
  %or.cond.i = and i1 %37, %38
  br i1 %or.cond.i, label %_ZN6icu_77L12compareRulesEPNS_7UVectorES1_.exit, label %39

39:                                               ; preds = %32
  %or.cond4.i = or i1 %37, %38
  br i1 %or.cond4.i, label %_ZN6icu_77L12compareRulesEPNS_7UVectorES1_.exit21, label %40

40:                                               ; preds = %39
  %41 = getelementptr inbounds nuw i8, ptr %34, i64 8
  %42 = load i32, ptr %41, align 8, !tbaa !23
  %43 = getelementptr inbounds nuw i8, ptr %36, i64 8
  %44 = load i32, ptr %43, align 8, !tbaa !23
  %.not.i = icmp eq i32 %42, %44
  br i1 %.not.i, label %.preheader.i, label %_ZN6icu_77L12compareRulesEPNS_7UVectorES1_.exit21

.preheader.i:                                     ; preds = %40
  %.not2829.i = icmp slt i32 %42, 1
  br i1 %.not2829.i, label %_ZN6icu_77L12compareRulesEPNS_7UVectorES1_.exit, label %.lr.ph.i

45:                                               ; preds = %.lr.ph.i
  %46 = add nuw nsw i32 %.02430.i, 1
  %exitcond.not.i = icmp eq i32 %46, %42
  br i1 %exitcond.not.i, label %_ZN6icu_77L12compareRulesEPNS_7UVectorES1_.exit, label %.lr.ph.i, !llvm.loop !47

.lr.ph.i:                                         ; preds = %.preheader.i, %45
  %.02430.i = phi i32 [ %46, %45 ], [ 0, %.preheader.i ]
  %47 = tail call noundef ptr @_ZNK6icu_777UVector9elementAtEi(ptr noundef nonnull align 8 dereferenceable(40) %34, i32 noundef %.02430.i)
  %48 = tail call noundef ptr @_ZNK6icu_777UVector9elementAtEi(ptr noundef nonnull align 8 dereferenceable(40) %36, i32 noundef %.02430.i)
  %49 = load ptr, ptr %47, align 8, !tbaa !3
  %50 = getelementptr inbounds nuw i8, ptr %49, i64 40
  %51 = load ptr, ptr %50, align 8
  %52 = tail call noundef zeroext i1 %51(ptr noundef nonnull align 8 dereferenceable(80) %47, ptr noundef nonnull align 8 dereferenceable(80) %48)
  br i1 %52, label %_ZN6icu_77L12compareRulesEPNS_7UVectorES1_.exit21, label %45

_ZN6icu_77L12compareRulesEPNS_7UVectorES1_.exit:  ; preds = %45, %.preheader.i, %32
  %53 = getelementptr inbounds nuw i8, ptr %0, i64 88
  %54 = load ptr, ptr %53, align 8, !tbaa !20
  %55 = getelementptr inbounds nuw i8, ptr %1, i64 88
  %56 = load ptr, ptr %55, align 8, !tbaa !20
  %57 = icmp eq ptr %54, null
  %58 = icmp eq ptr %56, null
  %or.cond.i12 = and i1 %57, %58
  br i1 %or.cond.i12, label %_ZN6icu_77L12compareRulesEPNS_7UVectorES1_.exit21, label %59

59:                                               ; preds = %_ZN6icu_77L12compareRulesEPNS_7UVectorES1_.exit
  %or.cond4.i13 = or i1 %57, %58
  br i1 %or.cond4.i13, label %_ZN6icu_77L12compareRulesEPNS_7UVectorES1_.exit21, label %60

60:                                               ; preds = %59
  %61 = getelementptr inbounds nuw i8, ptr %54, i64 8
  %62 = load i32, ptr %61, align 8, !tbaa !23
  %63 = getelementptr inbounds nuw i8, ptr %56, i64 8
  %64 = load i32, ptr %63, align 8, !tbaa !23
  %.not.i14 = icmp eq i32 %62, %64
  br i1 %.not.i14, label %.preheader.i16, label %_ZN6icu_77L12compareRulesEPNS_7UVectorES1_.exit21

.preheader.i16:                                   ; preds = %60
  %.not2829.i17 = icmp slt i32 %62, 1
  br i1 %.not2829.i17, label %_ZN6icu_77L12compareRulesEPNS_7UVectorES1_.exit21, label %.lr.ph.i18

.lr.ph.i18:                                       ; preds = %.preheader.i16, %.lr.ph.i18
  %.02430.i19 = phi i32 [ %71, %.lr.ph.i18 ], [ 0, %.preheader.i16 ]
  %65 = tail call noundef ptr @_ZNK6icu_777UVector9elementAtEi(ptr noundef nonnull align 8 dereferenceable(40) %54, i32 noundef %.02430.i19)
  %66 = tail call noundef ptr @_ZNK6icu_777UVector9elementAtEi(ptr noundef nonnull align 8 dereferenceable(40) %56, i32 noundef %.02430.i19)
  %67 = load ptr, ptr %65, align 8, !tbaa !3
  %68 = getelementptr inbounds nuw i8, ptr %67, i64 40
  %69 = load ptr, ptr %68, align 8
  %70 = tail call noundef zeroext i1 %69(ptr noundef nonnull align 8 dereferenceable(80) %65, ptr noundef nonnull align 8 dereferenceable(80) %66)
  %71 = add nuw nsw i32 %.02430.i19, 1
  %exitcond.not.i20 = icmp eq i32 %71, %62
  %or.cond = select i1 %70, i1 true, i1 %exitcond.not.i20
  br i1 %or.cond, label %_ZN6icu_77L12compareRulesEPNS_7UVectorES1_.exit21.loopexit, label %.lr.ph.i18, !llvm.loop !47

_ZN6icu_77L12compareRulesEPNS_7UVectorES1_.exit21.loopexit: ; preds = %.lr.ph.i18
  %.0.ph = xor i1 %70, true
  br label %_ZN6icu_77L12compareRulesEPNS_7UVectorES1_.exit21

_ZN6icu_77L12compareRulesEPNS_7UVectorES1_.exit21: ; preds = %.lr.ph.i, %_ZN6icu_77L12compareRulesEPNS_7UVectorES1_.exit21.loopexit, %60, %59, %40, %39, %16, %.preheader.i16, %_ZN6icu_77L12compareRulesEPNS_7UVectorES1_.exit, %23, %_ZNKSt9type_infoneERKS_.exit, %_ZNKSt9type_infoneERKS_.exit.thread23, %2
  %.0 = phi i1 [ true, %2 ], [ false, %_ZNKSt9type_infoneERKS_.exit.thread23 ], [ false, %_ZNKSt9type_infoneERKS_.exit ], [ false, %23 ], [ true, %_ZN6icu_77L12compareRulesEPNS_7UVectorES1_.exit ], [ true, %.preheader.i16 ], [ false, %16 ], [ false, %39 ], [ false, %40 ], [ false, %59 ], [ false, %60 ], [ %.0.ph, %_ZN6icu_77L12compareRulesEPNS_7UVectorES1_.exit21.loopexit ], [ false, %.lr.ph.i ]
  ret i1 %.0
}